target datalayout = "e-m:e-p270:32:32-p271:32:32-p272:64:64-i64:64-i128:128-f80:128-n8:16:32:64-S128"
target triple = "x86_64-pc-linux-gnu"

%"class.std::__cxx11::basic_string" = type { %"struct.std::__cxx11::basic_string<char>::_Alloc_hider", i64, %union.anon }
%"struct.std::__cxx11::basic_string<char>::_Alloc_hider" = type { ptr }
%union.anon = type { i64, [8 x i8] }
%class.SafeOpFlags = type { i8, i8, i8, i32 }

@_ZN24FunctionInvocationBinaryC1E10eBinaryOpsPK11SafeOpFlags = dso_local unnamed_addr alias void (ptr, i32, ptr), ptr @_ZN24FunctionInvocationBinaryC2E10eBinaryOpsPK11SafeOpFlags
@_ZN24FunctionInvocationBinaryC1E10eBinaryOpsPK11SafeOpFlagsRNSt7__cxx1112basic_stringIcSt11char_traitsIcESaIcEEESA_ = dso_local unnamed_addr alias void (ptr, i32, ptr, ptr, ptr), ptr @_ZN24FunctionInvocationBinaryC2E10eBinaryOpsPK11SafeOpFlagsRNSt7__cxx1112basic_stringIcSt11char_traitsIcESaIcEEESA_

; Function Attrs: mustprogress nounwind uwtable
define linkonce_odr dso_local noundef i32 @_ZNK11SafeOpFlags11get_op_sizeEv(ptr noundef nonnull align 4 dereferenceable(8) %0) #4 comdat align 2 {
  %2 = alloca ptr, align 8
  store ptr %0, ptr %2, align 8
  %3 = load ptr, ptr %2, align 8
  %4 = getelementptr inbounds %class.SafeOpFlags, ptr %3, i32 0, i32 3
  %5 = load i32, ptr %4, align 4
  ret i32 %5
}

; Function Attrs: mustprogress nounwind uwtable
define linkonce_odr dso_local noundef zeroext i1 @_ZN11SafeOpFlags12get_op2_signEv(ptr noundef nonnull align 4 dereferenceable(8) %0) #4 comdat align 2 {
  %2 = alloca ptr, align 8
  store ptr %0, ptr %2, align 8
  %3 = load ptr, ptr %2, align 8
  %4 = getelementptr inbounds %class.SafeOpFlags, ptr %3, i32 0, i32 1
  %5 = load i8, ptr %4, align 1
  %6 = trunc i8 %5 to i1
  ret i1 %6
}

; Function Attrs: mustprogress nounwind uwtable
define linkonce_odr dso_local noundef zeroext i1 @_ZN11SafeOpFlags12get_op1_signEv(ptr noundef nonnull align 4 dereferenceable(8) %0) #4 comdat align 2 {
  %2 = alloca ptr, align 8
  store ptr %0, ptr %2, align 8
  %3 = load ptr, ptr %2, align 8
  %4 = getelementptr inbounds %class.SafeOpFlags, ptr %3, i32 0, i32 0
  %5 = load i8, ptr %4, align 4
  %6 = trunc i8 %5 to i1
  ret i1 %6
}

; Function Attrs: mustprogress nounwind uwtable
define dso_local noundef zeroext i1 @_ZN24FunctionInvocationBinary8safe_opsE10eBinaryOps(i32 noundef %0) #4 align 2 {
  %2 = alloca i1, align 1
  %3 = alloca i32, align 4
  store i32 %0, ptr %3, align 4
  %4 = load i32, ptr %3, align 4
  switch i32 %4, label %6 [
    i32 0, label %5
    i32 1, label %5
    i32 2, label %5
    i32 4, label %5
    i32 3, label %5
    i32 17, label %5
    i32 16, label %5
  ]

5:                                                ; preds = %1, %1, %1, %1, %1, %1, %1
  store i1 true, ptr %2, align 1
  br label %7

6:                                                ; preds = %1
  store i1 false, ptr %2, align 1
  br label %7

7:                                                ; preds = %6, %5
  %8 = load i1, ptr %2, align 1
  ret i1 %8
}

; Function Attrs: mustprogress uwtable
define dso_local noundef ptr @_ZN24FunctionInvocationBinary30CreateFunctionInvocationBinaryER9CGContext10eBinaryOpsP11SafeOpFlags(ptr noundef nonnull align 8 dereferenceable(216) %0, i32 noundef %1, ptr noundef %2) #5 align 2 personality ptr @__gxx_personality_v0 {
  %4 = alloca ptr, align 8
  %5 = alloca i32, align 4
  %6 = alloca ptr, align 8
  %7 = alloca ptr, align 8
  %8 = alloca i8, align 1
  %9 = alloca i8, align 1
  %10 = alloca i32, align 4
  %11 = alloca i32, align 4
  %12 = alloca i32, align 4
  %13 = alloca ptr, align 8
  %14 = alloca %"class.std::__cxx11::basic_string", align 8
  %15 = alloca %"class.std::__cxx11::basic_string", align 8
  %16 = alloca %"class.std::__cxx11::basic_string", align 8
  %17 = alloca ptr, align 8
  %18 = alloca i32, align 4
  %19 = alloca %"class.std::__cxx11::basic_string", align 8
  store ptr %0, ptr %4, align 8
  store i32 %1, ptr %5, align 4
  store ptr %2, ptr %6, align 8
  store ptr null, ptr %7, align 8
  %20 = load ptr, ptr %6, align 8
  %21 = icmp ne ptr %20, null
  br i1 %21, label %22, label %76

22:                                               ; preds = %3
  %23 = load i32, ptr %5, align 4
  %24 = call noundef zeroext i1 @_ZN24FunctionInvocationBinary8safe_opsE10eBinaryOps(i32 noundef %23)
  br i1 %24, label %25, label %76

25:                                               ; preds = %22
  %26 = load ptr, ptr %6, align 8
  %27 = call noundef zeroext i1 @_ZN11SafeOpFlags12get_op1_signEv(ptr noundef nonnull align 4 dereferenceable(8) %26)
  %28 = zext i1 %27 to i8
  store i8 %28, ptr %8, align 1
  %29 = load ptr, ptr %6, align 8
  %30 = call noundef zeroext i1 @_ZN11SafeOpFlags12get_op2_signEv(ptr noundef nonnull align 4 dereferenceable(8) %29)
  %31 = zext i1 %30 to i8
  store i8 %31, ptr %9, align 1
  %32 = load ptr, ptr %6, align 8
  %33 = call noundef i32 @_ZNK11SafeOpFlags11get_op_sizeEv(ptr noundef nonnull align 4 dereferenceable(8) %32)
  store i32 %33, ptr %10, align 4
  %34 = load i8, ptr %8, align 1
  %35 = trunc i8 %34 to i1
  %36 = load i32, ptr %10, align 4
  %37 = call noundef i32 @_ZN11SafeOpFlags13flags_to_typeEb10SafeOpSize(i1 noundef zeroext %35, i32 noundef %36)
  store i32 %37, ptr %11, align 4
  %38 = load i8, ptr %9, align 1
  %39 = trunc i8 %38 to i1
  %40 = load i32, ptr %10, align 4
  %41 = call noundef i32 @_ZN11SafeOpFlags13flags_to_typeEb10SafeOpSize(i1 noundef zeroext %39, i32 noundef %40)
  store i32 %41, ptr %12, align 4
  %42 = load ptr, ptr %4, align 8
  %43 = call noundef ptr @_ZNK9CGContext17get_current_blockEv(ptr noundef nonnull align 8 dereferenceable(216) %42)
  store ptr %43, ptr %13, align 8
  %44 = load ptr, ptr %13, align 8
  %45 = load i32, ptr %11, align 4
  call void @_ZNK5Block18create_new_tmp_varB5cxx11E11eSimpleType(ptr dead_on_unwind writable sret(%"class.std::__cxx11::basic_string") align 8 %14, ptr noundef nonnull align 8 dereferenceable(192) %44, i32 noundef %45)
  call void @_ZNSt7__cxx1112basic_stringIcSt11char_traitsIcESaIcEEC1Ev(ptr noundef nonnull align 8 dereferenceable(32) %15) #3
  %46 = load i32, ptr %5, align 4
  %47 = icmp eq i32 %46, 17
  br i1 %47, label %51, label %48

48:                                               ; preds = %25
  %49 = load i32, ptr %5, align 4
  %50 = icmp eq i32 %49, 16
  br i1 %50, label %51, label %60

51:                                               ; preds = %48, %25
  %52 = load ptr, ptr %13, align 8
  %53 = load i32, ptr %12, align 4
  invoke void @_ZNK5Block18create_new_tmp_varB5cxx11E11eSimpleType(ptr dead_on_unwind writable sret(%"class.std::__cxx11::basic_string") align 8 %16, ptr noundef nonnull align 8 dereferenceable(192) %52, i32 noundef %53)
          to label %54 unwind label %56

54:                                               ; preds = %51
  %55 = call noundef nonnull align 8 dereferenceable(32) ptr @_ZNSt7__cxx1112basic_stringIcSt11char_traitsIcESaIcEEaSEOS4_(ptr noundef nonnull align 8 dereferenceable(32) %15, ptr noundef nonnull align 8 dereferenceable(32) %16) #3
  call void @_ZNSt7__cxx1112basic_stringIcSt11char_traitsIcESaIcEED1Ev(ptr noundef nonnull align 8 dereferenceable(32) %16) #3
  br label %65

56:                                               ; preds = %65, %60, %51
  %57 = landingpad { ptr, i32 }
          cleanup
  %58 = extractvalue { ptr, i32 } %57, 0
  store ptr %58, ptr %17, align 8
  %59 = extractvalue { ptr, i32 } %57, 1
  store i32 %59, ptr %18, align 4
  br label %75

60:                                               ; preds = %48
  %61 = load ptr, ptr %13, align 8
  %62 = load i32, ptr %11, align 4
  invoke void @_ZNK5Block18create_new_tmp_varB5cxx11E11eSimpleType(ptr dead_on_unwind writable sret(%"class.std::__cxx11::basic_string") align 8 %19, ptr noundef nonnull align 8 dereferenceable(192) %61, i32 noundef %62)
          to label %63 unwind label %56

63:                                               ; preds = %60
  %64 = call noundef nonnull align 8 dereferenceable(32) ptr @_ZNSt7__cxx1112basic_stringIcSt11char_traitsIcESaIcEEaSEOS4_(ptr noundef nonnull align 8 dereferenceable(32) %15, ptr noundef nonnull align 8 dereferenceable(32) %19) #3
  call void @_ZNSt7__cxx1112basic_stringIcSt11char_traitsIcESaIcEED1Ev(ptr noundef nonnull align 8 dereferenceable(32) %19) #3
  br label %65

65:                                               ; preds = %63, %54
  %66 = invoke noalias noundef nonnull ptr @_Znwm(i64 noundef 128) #11
          to label %67 unwind label %56

67:                                               ; preds = %65
  %68 = load i32, ptr %5, align 4
  %69 = load ptr, ptr %6, align 8
  invoke void @_ZN24FunctionInvocationBinaryC1E10eBinaryOpsPK11SafeOpFlagsRNSt7__cxx1112basic_stringIcSt11char_traitsIcESaIcEEESA_(ptr noundef nonnull align 8 dereferenceable(128) %66, i32 noundef %68, ptr noundef %69, ptr noundef nonnull align 8 dereferenceable(32) %14, ptr noundef nonnull align 8 dereferenceable(32) %15)
          to label %70 unwind label %71

70:                                               ; preds = %67
  store ptr %66, ptr %7, align 8
  call void @_ZNSt7__cxx1112basic_stringIcSt11char_traitsIcESaIcEED1Ev(ptr noundef nonnull align 8 dereferenceable(32) %15) #3
  call void @_ZNSt7__cxx1112basic_stringIcSt11char_traitsIcESaIcEED1Ev(ptr noundef nonnull align 8 dereferenceable(32) %14) #3
  br label %85

71:                                               ; preds = %67
  %72 = landingpad { ptr, i32 }
          cleanup
  %73 = extractvalue { ptr, i32 } %72, 0
  store ptr %73, ptr %17, align 8
  %74 = extractvalue { ptr, i32 } %72, 1
  store i32 %74, ptr %18, align 4
  call void @_ZdlPv(ptr noundef %66) #12
  br label %75

75:                                               ; preds = %71, %56
  call void @_ZNSt7__cxx1112basic_stringIcSt11char_traitsIcESaIcEED1Ev(ptr noundef nonnull align 8 dereferenceable(32) %15) #3
  call void @_ZNSt7__cxx1112basic_stringIcSt11char_traitsIcESaIcEED1Ev(ptr noundef nonnull align 8 dereferenceable(32) %14) #3
  br label %87

76:                                               ; preds = %22, %3
  %77 = call noalias noundef nonnull ptr @_Znwm(i64 noundef 128) #11
  %78 = load i32, ptr %5, align 4
  %79 = load ptr, ptr %6, align 8
  invoke void @_ZN24FunctionInvocationBinaryC1E10eBinaryOpsPK11SafeOpFlags(ptr noundef nonnull align 8 dereferenceable(128) %77, i32 noundef %78, ptr noundef %79)
          to label %80 unwind label %81

80:                                               ; preds = %76
  store ptr %77, ptr %7, align 8
  br label %85

81:                                               ; preds = %76
  %82 = landingpad { ptr, i32 }
          cleanup
  %83 = extractvalue { ptr, i32 } %82, 0
  store ptr %83, ptr %17, align 8
  %84 = extractvalue { ptr, i32 } %82, 1
  store i32 %84, ptr %18, align 4
  call void @_ZdlPv(ptr noundef %77) #12
  br label %87

85:                                               ; preds = %80, %70
  %86 = load ptr, ptr %7, align 8
  ret ptr %86

87:                                               ; preds = %81, %75
  %88 = load ptr, ptr %17, align 8
  %89 = load i32, ptr %18, align 4
  %90 = insertvalue { ptr, i32 } poison, ptr %88, 0
  %91 = insertvalue { ptr, i32 } %90, i32 %89, 1
  resume { ptr, i32 } %91
}