; Function Attrs: mustprogress uwtable
define dso_local noundef nonnull ptr @_ZN24FunctionInvocationBinary30CreateFunctionInvocationBinaryER9CGContext10eBinaryOpsP11SafeOpFlags(ptr noundef nonnull align 8 dereferenceable(216) %0, i32 noundef %1, ptr noundef %2) local_unnamed_addr #4 align 2 personality ptr @__gxx_personality_v0 {
  %4 = alloca %"class.std::__cxx11::basic_string", align 8
  %5 = alloca %"class.std::__cxx11::basic_string", align 8
  %6 = alloca %"class.std::__cxx11::basic_string", align 8
  %7 = alloca %"class.std::__cxx11::basic_string", align 8
  %.not = icmp eq ptr %2, null
  br i1 %.not, label %_ZN24FunctionInvocationBinary8safe_opsE10eBinaryOps.exit, label %8

8:                                                ; preds = %3
  switch i32 %1, label %_ZN24FunctionInvocationBinary8safe_opsE10eBinaryOps.exit [
    i32 0, label %9
    i32 1, label %9
    i32 2, label %9
    i32 4, label %9
    i32 3, label %9
    i32 17, label %9
    i32 16, label %9
  ]

9:                                                ; preds = %8, %8, %8, %8, %8, %8, %8
  %10 = load <2 x i8>, ptr %2, align 4
  %11 = trunc <2 x i8> %10 to <2 x i1>
  %12 = getelementptr inbounds i8, ptr %2, i64 4
  %13 = load i32, ptr %12, align 4
  %14 = extractelement <2 x i1> %11, i64 0
  %15 = tail call noundef i32 @_ZN11SafeOpFlags13flags_to_typeEb10SafeOpSize(i1 noundef zeroext %14, i32 noundef %13)
  %16 = extractelement <2 x i1> %11, i64 1
  %17 = tail call noundef i32 @_ZN11SafeOpFlags13flags_to_typeEb10SafeOpSize(i1 noundef zeroext %16, i32 noundef %13)
  %18 = tail call noundef ptr @_ZNK9CGContext17get_current_blockEv(ptr noundef nonnull align 8 dereferenceable(216) %0)
  call void @_ZNK5Block18create_new_tmp_varB5cxx11E11eSimpleType(ptr dead_on_unwind nonnull writable sret(%"class.std::__cxx11::basic_string") align 8 %4, ptr noundef nonnull align 8 dereferenceable(192) %18, i32 noundef %15)
  call void @_ZNSt7__cxx1112basic_stringIcSt11char_traitsIcESaIcEEC1Ev(ptr noundef nonnull align 8 dereferenceable(32) %5) #15
  %19 = and i32 %1, -2
  %or.cond = icmp eq i32 %19, 16
  br i1 %or.cond, label %20, label %23

20:                                               ; preds = %9
  invoke void @_ZNK5Block18create_new_tmp_varB5cxx11E11eSimpleType(ptr dead_on_unwind nonnull writable sret(%"class.std::__cxx11::basic_string") align 8 %6, ptr noundef nonnull align 8 dereferenceable(192) %18, i32 noundef %17)
          to label %24 unwind label %21

21:                                               ; preds = %24, %23, %20
  %22 = landingpad { ptr, i32 }
          cleanup
  br label %39

23:                                               ; preds = %9
  invoke void @_ZNK5Block18create_new_tmp_varB5cxx11E11eSimpleType(ptr dead_on_unwind nonnull writable sret(%"class.std::__cxx11::basic_string") align 8 %7, ptr noundef nonnull align 8 dereferenceable(192) %18, i32 noundef %15)
          to label %24 unwind label %21

24:                                               ; preds = %23, %20
  %.sink32 = phi ptr [ %6, %20 ], [ %7, %23 ]
  %25 = call noundef nonnull align 8 dereferenceable(32) ptr @_ZNSt7__cxx1112basic_stringIcSt11char_traitsIcESaIcEEaSEOS4_(ptr noundef nonnull align 8 dereferenceable(32) %5, ptr noundef nonnull align 8 dereferenceable(32) %.sink32) #15
  call void @_ZNSt7__cxx1112basic_stringIcSt11char_traitsIcESaIcEED1Ev(ptr noundef nonnull align 8 dereferenceable(32) %.sink32) #15
  %26 = invoke noalias noundef nonnull dereferenceable(128) ptr @_Znwm(i64 noundef 128) #16
          to label %27 unwind label %21

27:                                               ; preds = %24
  invoke void @_ZN18FunctionInvocationC2E15eInvocationTypePK11SafeOpFlags(ptr noundef nonnull align 8 dereferenceable(56) %26, i32 noundef 0, ptr noundef nonnull %2)
          to label %.noexc unwind label %37

.noexc:                                           ; preds = %27
  store ptr getelementptr inbounds ({ [15 x ptr] }, ptr @_ZTV24FunctionInvocationBinary, i64 0, i32 0, i64 2), ptr %26, align 8
  %28 = getelementptr inbounds i8, ptr %26, i64 56
  store i32 %1, ptr %28, align 8
  %29 = getelementptr inbounds i8, ptr %26, i64 64
  invoke void @_ZNSt7__cxx1112basic_stringIcSt11char_traitsIcESaIcEEC1ERKS4_(ptr noundef nonnull align 8 dereferenceable(32) %29, ptr noundef nonnull align 8 dereferenceable(32) %4)
          to label %30 unwind label %32

30:                                               ; preds = %.noexc
  %31 = getelementptr inbounds i8, ptr %26, i64 96
  invoke void @_ZNSt7__cxx1112basic_stringIcSt11char_traitsIcESaIcEEC1ERKS4_(ptr noundef nonnull align 8 dereferenceable(32) %31, ptr noundef nonnull align 8 dereferenceable(32) %5)
          to label %_ZN24FunctionInvocationBinaryC2E10eBinaryOpsPK11SafeOpFlagsRNSt7__cxx1112basic_stringIcSt11char_traitsIcESaIcEEESA_.exit unwind label %34

32:                                               ; preds = %.noexc
  %33 = landingpad { ptr, i32 }
          cleanup
  br label %36

34:                                               ; preds = %30
  %35 = landingpad { ptr, i32 }
          cleanup
  call void @_ZNSt7__cxx1112basic_stringIcSt11char_traitsIcESaIcEED1Ev(ptr noundef nonnull align 8 dereferenceable(32) %29) #15
  br label %36

36:                                               ; preds = %34, %32
  %.pn.i = phi { ptr, i32 } [ %35, %34 ], [ %33, %32 ]
  call void @_ZN18FunctionInvocationD2Ev(ptr noundef nonnull align 8 dereferenceable(56) %26) #15
  br label %.body

_ZN24FunctionInvocationBinaryC2E10eBinaryOpsPK11SafeOpFlagsRNSt7__cxx1112basic_stringIcSt11char_traitsIcESaIcEEESA_.exit: ; preds = %30
  call void @_ZNSt7__cxx1112basic_stringIcSt11char_traitsIcESaIcEED1Ev(ptr noundef nonnull align 8 dereferenceable(32) %5) #15
  call void @_ZNSt7__cxx1112basic_stringIcSt11char_traitsIcESaIcEED1Ev(ptr noundef nonnull align 8 dereferenceable(32) %4) #15
  br label %43

37:                                               ; preds = %27
  %38 = landingpad { ptr, i32 }
          cleanup
  br label %.body

.body:                                            ; preds = %36, %37
  %eh.lpad-body = phi { ptr, i32 } [ %38, %37 ], [ %.pn.i, %36 ]
  call void @_ZdlPv(ptr noundef nonnull %26) #14
  br label %39

39:                                               ; preds = %.body, %21
  %.pn = phi { ptr, i32 } [ %eh.lpad-body, %.body ], [ %22, %21 ]
  call void @_ZNSt7__cxx1112basic_stringIcSt11char_traitsIcESaIcEED1Ev(ptr noundef nonnull align 8 dereferenceable(32) %5) #15
  call void @_ZNSt7__cxx1112basic_stringIcSt11char_traitsIcESaIcEED1Ev(ptr noundef nonnull align 8 dereferenceable(32) %4) #15
  br label %44

_ZN24FunctionInvocationBinary8safe_opsE10eBinaryOps.exit: ; preds = %8, %3
  %40 = tail call noalias noundef nonnull dereferenceable(128) ptr @_Znwm(i64 noundef 128) #16
  invoke void @_ZN24FunctionInvocationBinaryC2E10eBinaryOpsPK11SafeOpFlags(ptr noundef nonnull align 8 dereferenceable(128) %40, i32 noundef %1, ptr noundef %2)
          to label %43 unwind label %41

41:                                               ; preds = %_ZN24FunctionInvocationBinary8safe_opsE10eBinaryOps.exit
  %42 = landingpad { ptr, i32 }
          cleanup
  tail call void @_ZdlPv(ptr noundef nonnull %40) #14
  br label %44

43:                                               ; preds = %_ZN24FunctionInvocationBinary8safe_opsE10eBinaryOps.exit, %_ZN24FunctionInvocationBinaryC2E10eBinaryOpsPK11SafeOpFlagsRNSt7__cxx1112basic_stringIcSt11char_traitsIcESaIcEEESA_.exit
  %.027 = phi ptr [ %26, %_ZN24FunctionInvocationBinaryC2E10eBinaryOpsPK11SafeOpFlagsRNSt7__cxx1112basic_stringIcSt11char_traitsIcESaIcEEESA_.exit ], [ %40, %_ZN24FunctionInvocationBinary8safe_opsE10eBinaryOps.exit ]
  ret ptr %.027

44:                                               ; preds = %41, %39
  %.pn.pn = phi { ptr, i32 } [ %.pn, %39 ], [ %42, %41 ]
  resume { ptr, i32 } %.pn.pn
}